; Function Attrs: mustprogress nofree norecurse nosync nounwind willreturn memory(read, argmem: readwrite, inaccessiblemem: none) uwtable
define hidden void @_ZN16NullCheckVisitor20do_ProfileReturnTypeEP17ProfileReturnType(ptr nocapture noundef nonnull readonly align 8 dereferenceable(16) %0, ptr nocapture noundef %1) unnamed_addr #8 align 2 {
  %3 = getelementptr inbounds i8, ptr %0, i64 8
  %4 = load ptr, ptr %3, align 8
  %5 = getelementptr inbounds i8, ptr %1, i64 120
  %6 = load ptr, ptr %5, align 8
  %7 = getelementptr inbounds i8, ptr %4, i64 32
  %8 = load ptr, ptr %7, align 8
  %9 = getelementptr inbounds i8, ptr %6, i64 8
  %10 = load i32, ptr %9, align 8
  %11 = sext i32 %10 to i64
  %12 = load ptr, ptr %8, align 8
  %13 = lshr i64 %11, 6
  %14 = getelementptr inbounds i64, ptr %12, i64 %13
  %15 = load i64, ptr %14, align 8
  %16 = and i64 %11, 63
  %17 = shl nuw i64 1, %16
  %18 = and i64 %17, %15
  %.not.i = icmp eq i64 %18, 0
  %19 = getelementptr inbounds i8, ptr %1, i64 56
  %20 = load i32, ptr %19, align 8
  %21 = and i32 %20, -2
  %masksel.i.i = zext i1 %.not.i to i32
  %22 = or disjoint i32 %21, %masksel.i.i
  store i32 %22, ptr %19, align 8
  ret void
}